target datalayout = "e-m:e-p270:32:32-p271:32:32-p272:64:64-i64:64-i128:128-f80:128-n8:16:32:64-S128"
target triple = "x86_64-pc-linux-gnu"

%struct.AVBPrint = type { ptr, i32, i32, i32, [1 x i8], [1000 x i8] }
%struct.__va_list_tag = type { i32, i32, ptr, ptr }

; Function Attrs: inlinehint nounwind uwtable
define internal i32 @av_bprint_is_complete(ptr noundef %0) #8 {
  %2 = alloca ptr, align 8
  store ptr %0, ptr %2, align 8, !tbaa !4
  %3 = load ptr, ptr %2, align 8, !tbaa !4
  %4 = getelementptr inbounds nuw %struct.AVBPrint, ptr %3, i32 0, i32 1
  %5 = load i32, ptr %4, align 8, !tbaa !14
  %6 = load ptr, ptr %2, align 8, !tbaa !4
  %7 = getelementptr inbounds nuw %struct.AVBPrint, ptr %6, i32 0, i32 2
  %8 = load i32, ptr %7, align 4, !tbaa !15
  %9 = icmp ult i32 %5, %8
  %10 = zext i1 %9 to i32
  ret i32 %10
}

; Function Attrs: nounwind uwtable
define internal void @av_bprint_grow(ptr noundef %0, i32 noundef %1) #0 {
  %3 = alloca ptr, align 8
  %4 = alloca i32, align 4
  store ptr %0, ptr %3, align 8, !tbaa !4
  store i32 %1, ptr %4, align 4, !tbaa !9
  %5 = load i32, ptr %4, align 4, !tbaa !9
  %6 = load ptr, ptr %3, align 8, !tbaa !4
  %7 = getelementptr inbounds nuw %struct.AVBPrint, ptr %6, i32 0, i32 1
  %8 = load i32, ptr %7, align 8, !tbaa !14
  %9 = sub i32 -6, %8
  %10 = icmp ugt i32 %5, %9
  br i1 %10, label %11, label %16

11:                                               ; preds = %2
  %12 = load ptr, ptr %3, align 8, !tbaa !4
  %13 = getelementptr inbounds nuw %struct.AVBPrint, ptr %12, i32 0, i32 1
  %14 = load i32, ptr %13, align 8, !tbaa !14
  %15 = sub i32 -6, %14
  br label %18

16:                                               ; preds = %2
  %17 = load i32, ptr %4, align 4, !tbaa !9
  br label %18

18:                                               ; preds = %16, %11
  %19 = phi i32 [ %15, %11 ], [ %17, %16 ]
  store i32 %19, ptr %4, align 4, !tbaa !9
  %20 = load i32, ptr %4, align 4, !tbaa !9
  %21 = load ptr, ptr %3, align 8, !tbaa !4
  %22 = getelementptr inbounds nuw %struct.AVBPrint, ptr %21, i32 0, i32 1
  %23 = load i32, ptr %22, align 8, !tbaa !14
  %24 = add i32 %23, %20
  store i32 %24, ptr %22, align 8, !tbaa !14
  %25 = load ptr, ptr %3, align 8, !tbaa !4
  %26 = getelementptr inbounds nuw %struct.AVBPrint, ptr %25, i32 0, i32 2
  %27 = load i32, ptr %26, align 4, !tbaa !15
  %28 = icmp ne i32 %27, 0
  br i1 %28, label %29, label %54

29:                                               ; preds = %18
  %30 = load ptr, ptr %3, align 8, !tbaa !4
  %31 = getelementptr inbounds nuw %struct.AVBPrint, ptr %30, i32 0, i32 0
  %32 = load ptr, ptr %31, align 8, !tbaa !11
  %33 = load ptr, ptr %3, align 8, !tbaa !4
  %34 = getelementptr inbounds nuw %struct.AVBPrint, ptr %33, i32 0, i32 1
  %35 = load i32, ptr %34, align 8, !tbaa !14
  %36 = load ptr, ptr %3, align 8, !tbaa !4
  %37 = getelementptr inbounds nuw %struct.AVBPrint, ptr %36, i32 0, i32 2
  %38 = load i32, ptr %37, align 4, !tbaa !15
  %39 = sub i32 %38, 1
  %40 = icmp ugt i32 %35, %39
  br i1 %40, label %41, label %46

41:                                               ; preds = %29
  %42 = load ptr, ptr %3, align 8, !tbaa !4
  %43 = getelementptr inbounds nuw %struct.AVBPrint, ptr %42, i32 0, i32 2
  %44 = load i32, ptr %43, align 4, !tbaa !15
  %45 = sub i32 %44, 1
  br label %50

46:                                               ; preds = %29
  %47 = load ptr, ptr %3, align 8, !tbaa !4
  %48 = getelementptr inbounds nuw %struct.AVBPrint, ptr %47, i32 0, i32 1
  %49 = load i32, ptr %48, align 8, !tbaa !14
  br label %50

50:                                               ; preds = %46, %41
  %51 = phi i32 [ %45, %41 ], [ %49, %46 ]
  %52 = zext i32 %51 to i64
  %53 = getelementptr inbounds nuw i8, ptr %32, i64 %52
  store i8 0, ptr %53, align 1, !tbaa !17
  br label %54

54:                                               ; preds = %50, %18
  ret void
}

; Function Attrs: nounwind uwtable
define internal i32 @av_bprint_alloc(ptr noundef %0, i32 noundef %1) #0 {
  %3 = alloca i32, align 4
  %4 = alloca ptr, align 8
  %5 = alloca i32, align 4
  %6 = alloca ptr, align 8
  %7 = alloca ptr, align 8
  %8 = alloca i32, align 4
  %9 = alloca i32, align 4
  %10 = alloca i32, align 4
  store ptr %0, ptr %4, align 8, !tbaa !4
  store i32 %1, ptr %5, align 4, !tbaa !9
  call void @llvm.lifetime.start.p0(i64 8, ptr %6) #9
  call void @llvm.lifetime.start.p0(i64 8, ptr %7) #9
  call void @llvm.lifetime.start.p0(i64 4, ptr %8) #9
  call void @llvm.lifetime.start.p0(i64 4, ptr %9) #9
  %11 = load ptr, ptr %4, align 8, !tbaa !4
  %12 = getelementptr inbounds nuw %struct.AVBPrint, ptr %11, i32 0, i32 2
  %13 = load i32, ptr %12, align 4, !tbaa !15
  %14 = load ptr, ptr %4, align 8, !tbaa !4
  %15 = getelementptr inbounds nuw %struct.AVBPrint, ptr %14, i32 0, i32 3
  %16 = load i32, ptr %15, align 8, !tbaa !16
  %17 = icmp eq i32 %13, %16
  br i1 %17, label %18, label %19

18:                                               ; preds = %2
  store i32 -5, ptr %3, align 4
  store i32 1, ptr %10, align 4
  br label %125

19:                                               ; preds = %2
  %20 = load ptr, ptr %4, align 8, !tbaa !4
  %21 = call i32 @av_bprint_is_complete(ptr noundef %20)
  %22 = icmp ne i32 %21, 0
  br i1 %22, label %24, label %23

23:                                               ; preds = %19
  store i32 -1094995529, ptr %3, align 4
  store i32 1, ptr %10, align 4
  br label %125

24:                                               ; preds = %19
  %25 = load ptr, ptr %4, align 8, !tbaa !4
  %26 = getelementptr inbounds nuw %struct.AVBPrint, ptr %25, i32 0, i32 1
  %27 = load i32, ptr %26, align 8, !tbaa !14
  %28 = add i32 %27, 1
  %29 = load ptr, ptr %4, align 8, !tbaa !4
  %30 = getelementptr inbounds nuw %struct.AVBPrint, ptr %29, i32 0, i32 1
  %31 = load i32, ptr %30, align 8, !tbaa !14
  %32 = sub i32 -1, %31
  %33 = sub i32 %32, 1
  %34 = load i32, ptr %5, align 4, !tbaa !9
  %35 = icmp ugt i32 %33, %34
  br i1 %35, label %36, label %38

36:                                               ; preds = %24
  %37 = load i32, ptr %5, align 4, !tbaa !9
  br label %44

38:                                               ; preds = %24
  %39 = load ptr, ptr %4, align 8, !tbaa !4
  %40 = getelementptr inbounds nuw %struct.AVBPrint, ptr %39, i32 0, i32 1
  %41 = load i32, ptr %40, align 8, !tbaa !14
  %42 = sub i32 -1, %41
  %43 = sub i32 %42, 1
  br label %44

44:                                               ; preds = %38, %36
  %45 = phi i32 [ %37, %36 ], [ %43, %38 ]
  %46 = add i32 %28, %45
  store i32 %46, ptr %8, align 4, !tbaa !9
  %47 = load ptr, ptr %4, align 8, !tbaa !4
  %48 = getelementptr inbounds nuw %struct.AVBPrint, ptr %47, i32 0, i32 2
  %49 = load i32, ptr %48, align 4, !tbaa !15
  %50 = load ptr, ptr %4, align 8, !tbaa !4
  %51 = getelementptr inbounds nuw %struct.AVBPrint, ptr %50, i32 0, i32 3
  %52 = load i32, ptr %51, align 8, !tbaa !16
  %53 = udiv i32 %52, 2
  %54 = icmp ugt i32 %49, %53
  br i1 %54, label %55, label %59

55:                                               ; preds = %44
  %56 = load ptr, ptr %4, align 8, !tbaa !4
  %57 = getelementptr inbounds nuw %struct.AVBPrint, ptr %56, i32 0, i32 3
  %58 = load i32, ptr %57, align 8, !tbaa !16
  br label %64

59:                                               ; preds = %44
  %60 = load ptr, ptr %4, align 8, !tbaa !4
  %61 = getelementptr inbounds nuw %struct.AVBPrint, ptr %60, i32 0, i32 2
  %62 = load i32, ptr %61, align 4, !tbaa !15
  %63 = mul i32 %62, 2
  br label %64

64:                                               ; preds = %59, %55
  %65 = phi i32 [ %58, %55 ], [ %63, %59 ]
  store i32 %65, ptr %9, align 4, !tbaa !9
  %66 = load i32, ptr %9, align 4, !tbaa !9
  %67 = load i32, ptr %8, align 4, !tbaa !9
  %68 = icmp ult i32 %66, %67
  br i1 %68, label %69, label %83

69:                                               ; preds = %64
  %70 = load ptr, ptr %4, align 8, !tbaa !4
  %71 = getelementptr inbounds nuw %struct.AVBPrint, ptr %70, i32 0, i32 3
  %72 = load i32, ptr %71, align 8, !tbaa !16
  %73 = load i32, ptr %8, align 4, !tbaa !9
  %74 = icmp ugt i32 %72, %73
  br i1 %74, label %75, label %77

75:                                               ; preds = %69
  %76 = load i32, ptr %8, align 4, !tbaa !9
  br label %81

77:                                               ; preds = %69
  %78 = load ptr, ptr %4, align 8, !tbaa !4
  %79 = getelementptr inbounds nuw %struct.AVBPrint, ptr %78, i32 0, i32 3
  %80 = load i32, ptr %79, align 8, !tbaa !16
  br label %81

81:                                               ; preds = %77, %75
  %82 = phi i32 [ %76, %75 ], [ %80, %77 ]
  store i32 %82, ptr %9, align 4, !tbaa !9
  br label %83

83:                                               ; preds = %81, %64
  %84 = load ptr, ptr %4, align 8, !tbaa !4
  %85 = getelementptr inbounds nuw %struct.AVBPrint, ptr %84, i32 0, i32 0
  %86 = load ptr, ptr %85, align 8, !tbaa !11
  %87 = load ptr, ptr %4, align 8, !tbaa !4
  %88 = getelementptr inbounds nuw %struct.AVBPrint, ptr %87, i32 0, i32 4
  %89 = getelementptr inbounds [1 x i8], ptr %88, i64 0, i64 0
  %90 = icmp ne ptr %86, %89
  br i1 %90, label %91, label %95

91:                                               ; preds = %83
  %92 = load ptr, ptr %4, align 8, !tbaa !4
  %93 = getelementptr inbounds nuw %struct.AVBPrint, ptr %92, i32 0, i32 0
  %94 = load ptr, ptr %93, align 8, !tbaa !11
  br label %96

95:                                               ; preds = %83
  br label %96

96:                                               ; preds = %95, %91
  %97 = phi ptr [ %94, %91 ], [ null, %95 ]
  store ptr %97, ptr %6, align 8, !tbaa !18
  %98 = load ptr, ptr %6, align 8, !tbaa !18
  %99 = load i32, ptr %9, align 4, !tbaa !9
  %100 = zext i32 %99 to i64
  %101 = call ptr @av_realloc(ptr noundef %98, i64 noundef %100)
  store ptr %101, ptr %7, align 8, !tbaa !18
  %102 = load ptr, ptr %7, align 8, !tbaa !18
  %103 = icmp ne ptr %102, null
  br i1 %103, label %105, label %104

104:                                              ; preds = %96
  store i32 -12, ptr %3, align 4
  store i32 1, ptr %10, align 4
  br label %125

105:                                              ; preds = %96
  %106 = load ptr, ptr %6, align 8, !tbaa !18
  %107 = icmp ne ptr %106, null
  br i1 %107, label %118, label %108

108:                                              ; preds = %105
  %109 = load ptr, ptr %7, align 8, !tbaa !18
  %110 = load ptr, ptr %4, align 8, !tbaa !4
  %111 = getelementptr inbounds nuw %struct.AVBPrint, ptr %110, i32 0, i32 0
  %112 = load ptr, ptr %111, align 8, !tbaa !11
  %113 = load ptr, ptr %4, align 8, !tbaa !4
  %114 = getelementptr inbounds nuw %struct.AVBPrint, ptr %113, i32 0, i32 1
  %115 = load i32, ptr %114, align 8, !tbaa !14
  %116 = add i32 %115, 1
  %117 = zext i32 %116 to i64
  call void @llvm.memcpy.p0.p0.i64(ptr align 1 %109, ptr align 1 %112, i64 %117, i1 false)
  br label %118

118:                                              ; preds = %108, %105
  %119 = load ptr, ptr %7, align 8, !tbaa !18
  %120 = load ptr, ptr %4, align 8, !tbaa !4
  %121 = getelementptr inbounds nuw %struct.AVBPrint, ptr %120, i32 0, i32 0
  store ptr %119, ptr %121, align 8, !tbaa !11
  %122 = load i32, ptr %9, align 4, !tbaa !9
  %123 = load ptr, ptr %4, align 8, !tbaa !4
  %124 = getelementptr inbounds nuw %struct.AVBPrint, ptr %123, i32 0, i32 2
  store i32 %122, ptr %124, align 4, !tbaa !15
  store i32 0, ptr %3, align 4
  store i32 1, ptr %10, align 4
  br label %125

125:                                              ; preds = %118, %104, %23, %18
  call void @llvm.lifetime.end.p0(i64 4, ptr %9) #9
  call void @llvm.lifetime.end.p0(i64 4, ptr %8) #9
  call void @llvm.lifetime.end.p0(i64 8, ptr %7) #9
  call void @llvm.lifetime.end.p0(i64 8, ptr %6) #9
  %126 = load i32, ptr %3, align 4
  ret i32 %126
}

; Function Attrs: nounwind uwtable
define void @av_vbprintf(ptr noundef %0, ptr noundef %1, ptr noundef %2) #0 {
  %4 = alloca ptr, align 8
  %5 = alloca ptr, align 8
  %6 = alloca ptr, align 8
  %7 = alloca i32, align 4
  %8 = alloca ptr, align 8
  %9 = alloca i32, align 4
  %10 = alloca [1 x %struct.__va_list_tag], align 16
  %11 = alloca i32, align 4
  store ptr %0, ptr %4, align 8, !tbaa !4
  store ptr %1, ptr %5, align 8, !tbaa !18
  store ptr %2, ptr %6, align 8, !tbaa !19
  call void @llvm.lifetime.start.p0(i64 4, ptr %7) #9
  call void @llvm.lifetime.start.p0(i64 8, ptr %8) #9
  call void @llvm.lifetime.start.p0(i64 4, ptr %9) #9
  call void @llvm.lifetime.start.p0(i64 24, ptr %10) #9
  br label %12

12:                                               ; preds = %72, %3
  br label %13

13:                                               ; preds = %12
  %14 = load ptr, ptr %4, align 8, !tbaa !4
  %15 = getelementptr inbounds nuw %struct.AVBPrint, ptr %14, i32 0, i32 2
  %16 = load i32, ptr %15, align 4, !tbaa !15
  %17 = load ptr, ptr %4, align 8, !tbaa !4
  %18 = getelementptr inbounds nuw %struct.AVBPrint, ptr %17, i32 0, i32 1
  %19 = load i32, ptr %18, align 8, !tbaa !14
  %20 = load ptr, ptr %4, align 8, !tbaa !4
  %21 = getelementptr inbounds nuw %struct.AVBPrint, ptr %20, i32 0, i32 2
  %22 = load i32, ptr %21, align 4, !tbaa !15
  %23 = icmp ugt i32 %19, %22
  br i1 %23, label %24, label %28

24:                                               ; preds = %13
  %25 = load ptr, ptr %4, align 8, !tbaa !4
  %26 = getelementptr inbounds nuw %struct.AVBPrint, ptr %25, i32 0, i32 2
  %27 = load i32, ptr %26, align 4, !tbaa !15
  br label %32

28:                                               ; preds = %13
  %29 = load ptr, ptr %4, align 8, !tbaa !4
  %30 = getelementptr inbounds nuw %struct.AVBPrint, ptr %29, i32 0, i32 1
  %31 = load i32, ptr %30, align 8, !tbaa !14
  br label %32

32:                                               ; preds = %28, %24
  %33 = phi i32 [ %27, %24 ], [ %31, %28 ]
  %34 = sub i32 %16, %33
  store i32 %34, ptr %7, align 4, !tbaa !9
  %35 = load i32, ptr %7, align 4, !tbaa !9
  %36 = icmp ne i32 %35, 0
  br i1 %36, label %37, label %46

37:                                               ; preds = %32
  %38 = load ptr, ptr %4, align 8, !tbaa !4
  %39 = getelementptr inbounds nuw %struct.AVBPrint, ptr %38, i32 0, i32 0
  %40 = load ptr, ptr %39, align 8, !tbaa !11
  %41 = load ptr, ptr %4, align 8, !tbaa !4
  %42 = getelementptr inbounds nuw %struct.AVBPrint, ptr %41, i32 0, i32 1
  %43 = load i32, ptr %42, align 8, !tbaa !14
  %44 = zext i32 %43 to i64
  %45 = getelementptr inbounds nuw i8, ptr %40, i64 %44
  br label %47

46:                                               ; preds = %32
  br label %47

47:                                               ; preds = %46, %37
  %48 = phi ptr [ %45, %37 ], [ null, %46 ]
  store ptr %48, ptr %8, align 8, !tbaa !18
  %49 = getelementptr inbounds [1 x %struct.__va_list_tag], ptr %10, i64 0, i64 0
  %50 = load ptr, ptr %6, align 8, !tbaa !19
  call void @llvm.va_copy.p0(ptr %49, ptr %50)
  %51 = load ptr, ptr %8, align 8, !tbaa !18
  %52 = load i32, ptr %7, align 4, !tbaa !9
  %53 = zext i32 %52 to i64
  %54 = load ptr, ptr %5, align 8, !tbaa !18
  %55 = getelementptr inbounds [1 x %struct.__va_list_tag], ptr %10, i64 0, i64 0
  %56 = call i32 @vsnprintf(ptr noundef %51, i64 noundef %53, ptr noundef %54, ptr noundef %55) #9
  store i32 %56, ptr %9, align 4, !tbaa !9
  %57 = getelementptr inbounds [1 x %struct.__va_list_tag], ptr %10, i64 0, i64 0
  call void @llvm.va_end.p0(ptr %57)
  %58 = load i32, ptr %9, align 4, !tbaa !9
  %59 = icmp sle i32 %58, 0
  br i1 %59, label %60, label %61

60:                                               ; preds = %47
  store i32 1, ptr %11, align 4
  br label %76

61:                                               ; preds = %47
  %62 = load i32, ptr %9, align 4, !tbaa !9
  %63 = load i32, ptr %7, align 4, !tbaa !9
  %64 = icmp ult i32 %62, %63
  br i1 %64, label %65, label %66

65:                                               ; preds = %61
  br label %73

66:                                               ; preds = %61
  %67 = load ptr, ptr %4, align 8, !tbaa !4
  %68 = load i32, ptr %9, align 4, !tbaa !9
  %69 = call i32 @av_bprint_alloc(ptr noundef %67, i32 noundef %68)
  %70 = icmp ne i32 %69, 0
  br i1 %70, label %71, label %72

71:                                               ; preds = %66
  br label %73

72:                                               ; preds = %66
  br label %12

73:                                               ; preds = %71, %65
  %74 = load ptr, ptr %4, align 8, !tbaa !4
  %75 = load i32, ptr %9, align 4, !tbaa !9
  call void @av_bprint_grow(ptr noundef %74, i32 noundef %75)
  store i32 0, ptr %11, align 4
  br label %76

76:                                               ; preds = %73, %60
  call void @llvm.lifetime.end.p0(i64 24, ptr %10) #9
  call void @llvm.lifetime.end.p0(i64 4, ptr %9) #9
  call void @llvm.lifetime.end.p0(i64 8, ptr %8) #9
  call void @llvm.lifetime.end.p0(i64 4, ptr %7) #9
  %77 = load i32, ptr %11, align 4
  switch i32 %77, label %79 [
    i32 0, label %78
    i32 1, label %78
  ]

78:                                               ; preds = %76, %76
  ret void

79:                                               ; preds = %76
  unreachable
}