; Function Attrs: nounwind uwtable
define void @av_vbprintf(ptr noundef captures(address) %0, ptr noundef readonly captures(none) %1, ptr noundef %2) local_unnamed_addr #0 {
  %4 = alloca [1 x %struct.__va_list_tag], align 16
  call void @llvm.lifetime.start.p0(i64 24, ptr nonnull %4) #12
  %5 = getelementptr inbounds nuw i8, ptr %0, i64 12
  %6 = getelementptr inbounds nuw i8, ptr %0, i64 8
  %7 = getelementptr inbounds nuw i8, ptr %0, i64 16
  %8 = getelementptr inbounds nuw i8, ptr %0, i64 20
  %.pre = load i32, ptr %5, align 4, !tbaa !12
  br label %9

9:                                                ; preds = %av_bprint_alloc.exit, %3
  %10 = phi i32 [ %.0.i, %av_bprint_alloc.exit ], [ %.pre, %3 ]
  %11 = load i32, ptr %6, align 8, !tbaa !11
  %12 = call i32 @llvm.usub.sat.i32(i32 %10, i32 %11)
  %.not.not = icmp ugt i32 %10, %11
  br i1 %.not.not, label %13, label %17

13:                                               ; preds = %9
  %14 = load ptr, ptr %0, align 8, !tbaa !4
  %15 = zext i32 %11 to i64
  %16 = getelementptr inbounds nuw i8, ptr %14, i64 %15
  br label %17

17:                                               ; preds = %9, %13
  %18 = phi ptr [ %16, %13 ], [ null, %9 ]
  call void @llvm.va_copy.p0(ptr nonnull %4, ptr %2)
  %19 = zext i32 %12 to i64
  %20 = call i32 @vsnprintf(ptr noundef %18, i64 noundef %19, ptr noundef %1, ptr noundef nonnull %4) #12
  call void @llvm.va_end.p0(ptr nonnull %4)
  %21 = icmp slt i32 %20, 1
  br i1 %21, label %av_bprint_grow.exit, label %22

22:                                               ; preds = %17
  %23 = icmp ult i32 %20, %12
  %.pr.pre37 = load i32, ptr %5, align 4, !tbaa !12
  br i1 %23, label %av_bprint_alloc.exit.thread, label %24

24:                                               ; preds = %22
  %25 = load i32, ptr %7, align 8, !tbaa !13
  %26 = icmp eq i32 %.pr.pre37, %25
  br i1 %26, label %av_bprint_alloc.exit.thread, label %27

27:                                               ; preds = %24
  %.val.i = load i32, ptr %6, align 8, !tbaa !11
  %.not.i = icmp ult i32 %.val.i, %.pr.pre37
  br i1 %.not.i, label %28, label %av_bprint_alloc.exit.thread

28:                                               ; preds = %27
  %29 = add nuw i32 %.val.i, 1
  %30 = sub nuw i32 -2, %.val.i
  %..i = call i32 @llvm.umin.i32(i32 %30, i32 %20)
  %31 = add i32 %29, %..i
  %32 = lshr i32 %25, 1
  %33 = icmp ugt i32 %.pr.pre37, %32
  %34 = shl nuw i32 %.pr.pre37, 1
  %35 = select i1 %33, i32 %25, i32 %34
  %36 = icmp ult i32 %35, %31
  %.44.i = call i32 @llvm.umin.i32(i32 %25, i32 %31)
  %.0.i = select i1 %36, i32 %.44.i, i32 %35
  %37 = load ptr, ptr %0, align 8, !tbaa !4
  %.not41.i = icmp eq ptr %37, %8
  %spec.select.i = select i1 %.not41.i, ptr null, ptr %37
  %38 = zext i32 %.0.i to i64
  %39 = call ptr @av_realloc(ptr noundef %spec.select.i, i64 noundef %38) #12
  %.not42.i = icmp eq ptr %39, null
  br i1 %.not42.i, label %.av_bprint_alloc.exit.threadthread-pre-split_crit_edge, label %40

.av_bprint_alloc.exit.threadthread-pre-split_crit_edge: ; preds = %28
  %.pr.pre = load i32, ptr %5, align 4, !tbaa !12
  br label %av_bprint_alloc.exit.thread

40:                                               ; preds = %28
  %.not43.i = icmp eq ptr %spec.select.i, null
  br i1 %.not43.i, label %41, label %av_bprint_alloc.exit

41:                                               ; preds = %40
  %42 = load ptr, ptr %0, align 8, !tbaa !4
  %43 = load i32, ptr %6, align 8, !tbaa !11
  %44 = add i32 %43, 1
  %45 = zext i32 %44 to i64
  call void @llvm.memcpy.p0.p0.i64(ptr nonnull align 1 %39, ptr align 1 %42, i64 %45, i1 false)
  br label %av_bprint_alloc.exit

av_bprint_alloc.exit:                             ; preds = %40, %41
  store ptr %39, ptr %0, align 8, !tbaa !4
  store i32 %.0.i, ptr %5, align 4, !tbaa !12
  br label %9

av_bprint_alloc.exit.thread:                      ; preds = %24, %27, %22, %.av_bprint_alloc.exit.threadthread-pre-split_crit_edge
  %46 = phi i32 [ %.pr.pre, %.av_bprint_alloc.exit.threadthread-pre-split_crit_edge ], [ %.pr.pre37, %22 ], [ %.pr.pre37, %27 ], [ %.pr.pre37, %24 ]
  %47 = load i32, ptr %6, align 8, !tbaa !11
  %48 = sub i32 -6, %47
  %..i21 = call i32 @llvm.umin.i32(i32 %20, i32 %48)
  %49 = add i32 %..i21, %47
  store i32 %49, ptr %6, align 8, !tbaa !11
  %.not.i22 = icmp eq i32 %46, 0
  br i1 %.not.i22, label %av_bprint_grow.exit, label %50

50:                                               ; preds = %av_bprint_alloc.exit.thread
  %51 = load ptr, ptr %0, align 8, !tbaa !4
  %52 = add i32 %46, -1
  %.15.i = call i32 @llvm.umin.i32(i32 %49, i32 %52)
  %53 = zext i32 %.15.i to i64
  %54 = getelementptr inbounds nuw i8, ptr %51, i64 %53
  store i8 0, ptr %54, align 1, !tbaa !14
  br label %av_bprint_grow.exit

av_bprint_grow.exit:                              ; preds = %17, %50, %av_bprint_alloc.exit.thread
  call void @llvm.lifetime.end.p0(i64 24, ptr nonnull %4) #12
  ret void
}